(dp0
(I7
I3
tp1
(lp2
(I6
I3
tp3
a(I7
I2
tp4
as(I6
I9
tp5
(lp6
(I5
I9
tp7
a(I7
I9
tp8
a(I6
I8
tp9
as(I0
I7
tp10
(lp11
(I1
I7
tp12
a(I0
I8
tp13
a(I0
I6
tp14
as(I1
I6
tp15
(lp16
(I0
I6
tp17
a(I2
I6
tp18
a(I1
I7
tp19
as(I3
I7
tp20
(lp21
(I2
I7
tp22
a(I4
I7
tp23
a(I3
I8
tp24
a(I3
I6
tp25
as(I2
I5
tp26
(lp27
(I3
I5
tp28
a(I2
I6
tp29
as(I8
I5
tp30
(lp31
s(I5
I8
tp32
(lp33
(I4
I8
tp34
a(I6
I8
tp35
a(I5
I9
tp36
a(I5
I7
tp37
as(I4
I0
tp38
(lp39
(I3
I0
tp40
a(I5
I0
tp41
a(I4
I1
tp42
as(I9
I0
tp43
(lp44
(I8
I0
tp45
a(I9
I1
tp46
as(I6
I7
tp47
(lp48
(I5
I7
tp49
a(I7
I7
tp50
a(I6
I8
tp51
a(I6
I6
tp52
as(I5
I5
tp53
(lp54
(I4
I5
tp55
a(I6
I5
tp56
a(I5
I4
tp57
as(I7
I6
tp58
(lp59
(I6
I6
tp60
a(I7
I7
tp61
as(I0
I4
tp62
(lp63
(I0
I3
tp64
as(I1
I1
tp65
(lp66
(I0
I1
tp67
a(I2
I1
tp68
a(I1
I2
tp69
a(I1
I0
tp70
as(I3
I2
tp71
(lp72
(I2
I2
tp73
a(I4
I2
tp74
a(I3
I3
tp75
a(I3
I1
tp76
as(I2
I6
tp77
(lp78
(I3
I6
tp79
a(I2
I7
tp80
as(I8
I2
tp81
(lp82
(I7
I2
tp83
a(I9
I2
tp84
a(I8
I1
tp85
as(I4
I5
tp86
(lp87
(I3
I5
tp88
a(I5
I5
tp89
a(I4
I4
tp90
as(I9
I3
tp91
(lp92
(I9
I2
tp93
as(I6
I0
tp94
(lp95
(I5
I0
tp96
a(I7
I0
tp97
a(I6
I1
tp98
as(I7
I5
tp99
(lp100
(I6
I5
tp101
a(I7
I6
tp102
as(I0
I1
tp103
(lp104
(I1
I1
tp105
a(I0
I2
tp106
as(I3
I1
tp107
(lp108
(I2
I1
tp109
a(I4
I1
tp110
a(I3
I2
tp111
a(I3
I0
tp112
as(I9
I9
tp113
(lp114
(I8
I9
tp115
a(I9
I8
tp116
as(I7
I8
tp117
(lp118
(I6
I8
tp119
a(I8
I8
tp120
a(I7
I9
tp121
a(I7
I7
tp122
as(I2
I1
tp123
(lp124
(I1
I1
tp125
a(I3
I1
tp126
a(I2
I2
tp127
a(I2
I0
tp128
as(I8
I9
tp129
(lp130
(I7
I9
tp131
a(I8
I8
tp132
as(I9
I4
tp133
(lp134
(I9
I3
tp135
as(I5
I1
tp136
(lp137
(I4
I1
tp138
a(I6
I1
tp139
a(I5
I2
tp140
a(I5
I0
tp141
as(I7
I2
tp142
(lp143
(I6
I2
tp144
a(I8
I2
tp145
a(I7
I3
tp146
a(I7
I1
tp147
as(I1
I5
tp148
(lp149
s(I3
I6
tp150
(lp151
(I2
I6
tp152
a(I3
I7
tp153
a(I3
I5
tp154
as(I2
I2
tp155
(lp156
(I1
I2
tp157
a(I3
I2
tp158
a(I2
I3
tp159
a(I2
I1
tp160
as(I8
I6
tp161
(lp162
(I7
I6
tp163
a(I9
I6
tp164
a(I8
I7
tp165
as(I4
I1
tp166
(lp167
(I3
I1
tp168
a(I5
I1
tp169
a(I4
I2
tp170
a(I4
I0
tp171
as(I9
I7
tp172
(lp173
(I8
I7
tp174
a(I9
I8
tp175
a(I9
I6
tp176
as(I6
I4
tp177
(lp178
(I5
I4
tp179
a(I6
I5
tp180
a(I6
I3
tp181
as(I5
I4
tp182
(lp183
(I4
I4
tp184
a(I6
I4
tp185
a(I5
I5
tp186
as(I7
I1
tp187
(lp188
(I6
I1
tp189
a(I8
I1
tp190
a(I7
I2
tp191
a(I7
I0
tp192
as(I0
I5
tp193
(lp194
(I0
I6
tp195
as(I1
I0
tp196
(lp197
(I2
I0
tp198
a(I1
I1
tp199
as(I0
I8
tp200
(lp201
(I1
I8
tp202
a(I0
I7
tp203
as(I3
I5
tp204
(lp205
(I4
I5
tp206
a(I3
I6
tp207
a(I3
I4
tp208
as(I2
I7
tp209
(lp210
(I1
I7
tp211
a(I3
I7
tp212
a(I2
I8
tp213
a(I2
I6
tp214
as(I8
I3
tp215
(lp216
(I7
I3
tp217
a(I9
I3
tp218
a(I8
I2
tp219
as(I4
I6
tp220
(lp221
(I3
I6
tp222
a(I4
I7
tp223
a(I4
I5
tp224
as(I9
I2
tp225
(lp226
(I8
I2
tp227
a(I9
I3
tp228
a(I9
I1
tp229
as(I6
I1
tp230
(lp231
(I5
I1
tp232
a(I7
I1
tp233
a(I6
I2
tp234
a(I6
I0
tp235
as(I5
I7
tp236
(lp237
(I4
I7
tp238
a(I6
I7
tp239
a(I5
I8
tp240
as(I7
I4
tp241
(lp242
(I6
I4
tp243
a(I7
I3
tp244
as(I0
I2
tp245
(lp246
(I1
I2
tp247
a(I0
I3
tp248
a(I0
I1
tp249
as(I1
I3
tp250
(lp251
(I0
I3
tp252
a(I2
I3
tp253
a(I1
I2
tp254
as(I4
I8
tp255
(lp256
(I3
I8
tp257
a(I5
I8
tp258
a(I4
I9
tp259
a(I4
I7
tp260
as(I3
I0
tp261
(lp262
(I2
I0
tp263
a(I4
I0
tp264
a(I3
I1
tp265
as(I2
I8
tp266
(lp267
(I1
I8
tp268
a(I3
I8
tp269
a(I2
I9
tp270
a(I2
I7
tp271
as(I9
I8
tp272
(lp273
(I8
I8
tp274
a(I9
I7
tp275
as(I8
I0
tp276
(lp277
(I7
I0
tp278
a(I8
I1
tp279
as(I6
I2
tp280
(lp281
(I5
I2
tp282
a(I7
I2
tp283
a(I6
I3
tp284
a(I6
I1
tp285
as(I5
I0
tp286
(lp287
(I4
I0
tp288
a(I6
I0
tp289
a(I5
I1
tp290
as(I1
I4
tp291
(lp292
s(I3
I9
tp293
(lp294
(I2
I9
tp295
a(I4
I9
tp296
a(I3
I8
tp297
as(I2
I3
tp298
(lp299
(I3
I3
tp300
a(I2
I2
tp301
as(I1
I9
tp302
(lp303
(I2
I9
tp304
a(I1
I8
tp305
as(I8
I7
tp306
(lp307
(I7
I7
tp308
a(I9
I7
tp309
a(I8
I8
tp310
as(I4
I2
tp311
(lp312
(I3
I2
tp313
a(I5
I2
tp314
a(I4
I1
tp315
as(I9
I6
tp316
(lp317
(I9
I7
tp318
as(I6
I5
tp319
(lp320
(I5
I5
tp321
a(I6
I6
tp322
a(I6
I4
tp323
as(I5
I3
tp324
(lp325
(I6
I3
tp326
a(I5
I4
tp327
a(I5
I2
tp328
as(I7
I0
tp329
(lp330
(I6
I0
tp331
a(I8
I0
tp332
a(I7
I1
tp333
as(I6
I8
tp334
(lp335
(I5
I8
tp336
a(I7
I8
tp337
a(I6
I9
tp338
a(I6
I7
tp339
as(I0
I6
tp340
(lp341
(I0
I7
tp342
as(I1
I7
tp343
(lp344
(I0
I7
tp345
a(I2
I7
tp346
a(I1
I8
tp347
as(I0
I9
tp348
(lp349
(I1
I9
tp350
a(I0
I8
tp351
as(I3
I4
tp352
(lp353
(I4
I4
tp354
a(I3
I5
tp355
a(I3
I3
tp356
as(I2
I4
tp357
(lp358
(I3
I4
tp359
a(I2
I3
tp360
as(I8
I4
tp361
(lp362
s(I5
I9
tp363
(lp364
(I4
I9
tp365
a(I6
I9
tp366
a(I5
I8
tp367
as(I4
I7
tp368
(lp369
(I3
I7
tp370
a(I5
I7
tp371
a(I4
I8
tp372
as(I9
I1
tp373
(lp374
(I8
I1
tp375
a(I9
I2
tp376
as(I6
I6
tp377
(lp378
(I7
I6
tp379
a(I6
I7
tp380
a(I6
I5
tp381
as(I5
I6
tp382
(lp383
(I6
I6
tp384
a(I5
I7
tp385
a(I5
I5
tp386
as(I7
I7
tp387
(lp388
(I6
I7
tp389
a(I8
I7
tp390
a(I7
I8
tp391
a(I7
I6
tp392
as(I0
I3
tp393
(lp394
(I0
I2
tp395
as(I1
I2
tp396
(lp397
(I0
I2
tp398
a(I2
I2
tp399
a(I1
I1
tp400
as(I4
I9
tp401
(lp402
(I3
I9
tp403
a(I5
I9
tp404
a(I4
I8
tp405
as(I3
I3
tp406
(lp407
(I2
I3
tp408
a(I3
I4
tp409
a(I3
I2
tp410
as(I2
I9
tp411
(lp412
(I1
I9
tp413
a(I3
I9
tp414
a(I2
I8
tp415
as(I8
I1
tp416
(lp417
(I7
I1
tp418
a(I9
I1
tp419
a(I8
I2
tp420
a(I8
I0
tp421
as(I4
I4
tp422
(lp423
(I3
I4
tp424
a(I5
I4
tp425
a(I4
I5
tp426
as(I6
I3
tp427
(lp428
(I7
I3
tp429
a(I6
I4
tp430
a(I6
I2
tp431
as(I0
I0
tp432
(lp433
(I1
I0
tp434
a(I0
I1
tp435
as(I7
I9
tp436
(lp437
(I6
I9
tp438
a(I8
I9
tp439
a(I7
I8
tp440
as(I3
I8
tp441
(lp442
(I2
I8
tp443
a(I4
I8
tp444
a(I3
I9
tp445
a(I3
I7
tp446
as(I2
I0
tp447
(lp448
(I1
I0
tp449
a(I3
I0
tp450
a(I2
I1
tp451
as(I1
I8
tp452
(lp453
(I0
I8
tp454
a(I2
I8
tp455
a(I1
I9
tp456
a(I1
I7
tp457
as(I8
I8
tp458
(lp459
(I7
I8
tp460
a(I9
I8
tp461
a(I8
I9
tp462
a(I8
I7
tp463
as(I4
I3
tp464
(lp465
(I3
I3
tp466
a(I4
I4
tp467
a(I4
I2
tp468
as(I9
I5
tp469
(lp470
(I9
I6
tp471
as(I5
I2
tp472
(lp473
(I4
I2
tp474
a(I6
I2
tp475
a(I5
I1
tp476
as.